; Function Attrs: mustprogress nofree norecurse nosync nounwind willreturn memory(argmem: write) uwtable
define hidden void @_ZN4ncnn5LayerC2Ev(ptr noundef nonnull align 8 dereferenceable(208) initializes((0, 8)) %0) unnamed_addr #6 align 2 personality ptr @__gxx_personality_v0 {
  store ptr getelementptr inbounds nuw inrange(-16, 80) (i8, ptr @_ZTVN4ncnn5LayerE, i64 16), ptr %0, align 8, !tbaa !38
  %2 = getelementptr inbounds nuw i8, ptr %0, i64 48
  %3 = getelementptr inbounds nuw i8, ptr %0, i64 64
  store ptr %3, ptr %2, align 8, !tbaa !48
  %4 = getelementptr inbounds nuw i8, ptr %0, i64 56
  store i64 0, ptr %4, align 8, !tbaa !49
  store i8 0, ptr %3, align 8, !tbaa !50
  %5 = getelementptr inbounds nuw i8, ptr %0, i64 80
  %6 = getelementptr inbounds nuw i8, ptr %0, i64 96
  store ptr %6, ptr %5, align 8, !tbaa !48
  %7 = getelementptr inbounds nuw i8, ptr %0, i64 88
  store i64 0, ptr %7, align 8, !tbaa !49
  store i8 0, ptr %6, align 8, !tbaa !50
  %8 = getelementptr inbounds nuw i8, ptr %0, i64 112
  %9 = getelementptr inbounds nuw i8, ptr %0, i64 8
  %10 = getelementptr inbounds nuw i8, ptr %0, i64 40
  tail call void @llvm.memset.p0.i64(ptr noundef nonnull align 8 dereferenceable(10) %9, i8 0, i64 10, i1 false)
  tail call void @llvm.memset.p0.i64(ptr noundef nonnull align 8 dereferenceable(96) %8, i8 0, i64 96, i1 false)
  store i32 -1, ptr %10, align 8, !tbaa !51
  %11 = getelementptr inbounds nuw i8, ptr %0, i64 32
  store ptr null, ptr %11, align 8, !tbaa !52
  ret void
}